; Function Attrs: nounwind sspstrong uwtable
define internal void @mirror_write_complete(ptr noundef %op, i32 noundef %ret) #0 {
entry:
  %0 = load ptr, ptr %op, align 8
  %cmp = icmp slt i32 %ret, 0
  br i1 %cmp, label %if.then, label %if.end7

if.then:                                          ; preds = %entry
  %dirty_bitmap = getelementptr inbounds nuw i8, ptr %0, i64 640
  %1 = load ptr, ptr %dirty_bitmap, align 8
  %offset = getelementptr inbounds nuw i8, ptr %op, i64 48
  %2 = load i64, ptr %offset, align 8
  %bytes = getelementptr inbounds nuw i8, ptr %op, i64 56
  %3 = load i64, ptr %bytes, align 8
  tail call void @bdrv_set_dirty_bitmap(ptr noundef %1, i64 noundef %2, i64 noundef %3) #12
  %sub = sub i32 0, %ret
  %actively_synced.i = getelementptr inbounds nuw i8, ptr %0, i64 600
  store atomic i8 0, ptr %actively_synced.i monotonic, align 8
  %on_target_error.i = getelementptr inbounds nuw i8, ptr %0, i64 596
  %4 = load i32, ptr %on_target_error.i, align 4
  %call4.i = tail call i32 @block_job_error_action(ptr noundef nonnull %0, i32 noundef %4, i32 noundef 0, i32 noundef range(i32 1, -2147483647) %sub) #12
  %cmp2 = icmp eq i32 %call4.i, 1
  br i1 %cmp2, label %land.lhs.true, label %if.end7

land.lhs.true:                                    ; preds = %if.then
  %ret3 = getelementptr inbounds nuw i8, ptr %0, i64 736
  %5 = load i32, ptr %ret3, align 8
  %cmp4 = icmp sgt i32 %5, -1
  br i1 %cmp4, label %if.then5, label %if.end7

if.then5:                                         ; preds = %land.lhs.true
  store i32 %ret, ptr %ret3, align 8
  br label %if.end7

if.end7:                                          ; preds = %if.then, %land.lhs.true, %if.then5, %entry
  tail call void @mirror_iteration_done(ptr noundef nonnull %op, i32 noundef %ret)
  ret void
}